; Function Attrs: nounwind uwtable
define ptr @Ivy_CanonExor(ptr noundef initializes((56, 72)) %0, ptr noundef %1, ptr noundef %2) local_unnamed_addr #0 {
  %4 = ptrtoint ptr %1 to i64
  %5 = ptrtoint ptr %2 to i64
  %6 = and i64 %4, -2
  %7 = inttoptr i64 %6 to ptr
  %8 = and i64 %5, -2
  %9 = inttoptr i64 %8 to ptr
  %10 = getelementptr inbounds nuw i8, ptr %0, i64 48
  %11 = load i32, ptr %10, align 8
  %12 = and i32 %11, -1552
  %13 = or disjoint i32 %12, 6
  store i32 %13, ptr %10, align 8
  %14 = getelementptr inbounds nuw i8, ptr %0, i64 56
  store ptr %7, ptr %14, align 8, !tbaa !3
  %15 = getelementptr inbounds nuw i8, ptr %0, i64 64
  store ptr %9, ptr %15, align 8, !tbaa !10
  %.not.i = icmp eq i64 %8, 0
  br i1 %.not.i, label %Ivy_ObjCreateGhost.exit, label %16

16:                                               ; preds = %3
  %.not.i.i = icmp eq i64 %6, 0
  br i1 %.not.i.i, label %Ivy_ObjFaninId1.exit.i, label %17

17:                                               ; preds = %16
  %.val.i.i = load i32, ptr %7, align 8, !tbaa !11
  br label %Ivy_ObjFaninId1.exit.i

Ivy_ObjFaninId1.exit.i:                           ; preds = %17, %16
  %18 = phi i32 [ %.val.i.i, %17 ], [ 0, %16 ]
  %.val.i19.i = load i32, ptr %9, align 8, !tbaa !11
  %19 = icmp sgt i32 %18, %.val.i19.i
  br i1 %19, label %20, label %Ivy_ObjCreateGhost.exit

20:                                               ; preds = %Ivy_ObjFaninId1.exit.i
  store ptr %9, ptr %14, align 8, !tbaa !3
  store ptr %7, ptr %15, align 8, !tbaa !10
  br label %Ivy_ObjCreateGhost.exit

Ivy_ObjCreateGhost.exit:                          ; preds = %3, %Ivy_ObjFaninId1.exit.i, %20
  %21 = xor i64 %5, %4
  %22 = and i64 %21, 1
  %23 = getelementptr inbounds nuw i8, ptr %0, i64 40
  %24 = tail call ptr @Ivy_CanonPair_rec(ptr noundef nonnull %0, ptr noundef nonnull %23)
  %25 = ptrtoint ptr %24 to i64
  %26 = xor i64 %22, %25
  %27 = inttoptr i64 %26 to ptr
  ret ptr %27
}